; Function Attrs: mustprogress nounwind uwtable
define internal void @_ZZN6hermes2vm6GCBase20sizeDiagnosticCensusEmEN26HeapSizeDiagnosticAcceptor6acceptERNS0_13GCPointerBaseE(ptr noundef nonnull align 8 dereferenceable(168) %this, ptr nocapture nonnull readnone align 4 %ptr) unnamed_addr #0 align 2 {
entry:
  %ref.tmp = alloca %"class.std::__cxx11::basic_string", align 8
  %ref.tmp2 = alloca %"class.std::allocator.2", align 1
  %ref.tmp6 = alloca %"class.std::__cxx11::basic_string", align 8
  %ref.tmp7 = alloca %"class.std::allocator.2", align 1
  %breakdown = getelementptr inbounds i8, ptr %this, i64 112
  call void @_ZNSaIcEC1Ev(ptr noundef nonnull align 1 dereferenceable(1) %ref.tmp2) #27
  %call.i = call noundef ptr @_ZNSt7__cxx1112basic_stringIcSt11char_traitsIcESaIcEE13_M_local_dataEv(ptr noundef nonnull align 8 dereferenceable(32) %ref.tmp) #27
  call void @_ZNSt7__cxx1112basic_stringIcSt11char_traitsIcESaIcEE12_Alloc_hiderC1EPcRKS3_(ptr noundef nonnull align 8 dereferenceable(8) %ref.tmp, ptr noundef %call.i, ptr noundef nonnull align 1 dereferenceable(1) %ref.tmp2) #27
  call void @_ZNSt7__cxx1112basic_stringIcSt11char_traitsIcESaIcEE12_M_constructIPKcEEvT_S8_St20forward_iterator_tag(ptr noundef nonnull align 8 dereferenceable(32) %ref.tmp, ptr noundef nonnull @.str.79, ptr noundef nonnull getelementptr inbounds ([10 x i8], ptr @.str.79, i64 0, i64 9))
  %call = call fastcc noundef nonnull align 8 dereferenceable(64) ptr @_ZNSt3mapINSt7__cxx1112basic_stringIcSt11char_traitsIcESaIcEEEZN6hermes2vm6GCBase20sizeDiagnosticCensusEmE14DiagnosticStatSt4lessIS5_ESaISt4pairIKS5_S9_EEEixEOS5_(ptr noundef nonnull align 8 dereferenceable(48) %breakdown, ptr noundef nonnull align 8 dereferenceable(32) %ref.tmp)
  %0 = load i64, ptr %call, align 8
  %inc = add i64 %0, 1
  store i64 %inc, ptr %call, align 8
  call void @_ZNSt7__cxx1112basic_stringIcSt11char_traitsIcESaIcEED1Ev(ptr noundef nonnull align 8 dereferenceable(32) %ref.tmp) #27
  call void @_ZNSaIcED1Ev(ptr noundef nonnull align 1 dereferenceable(1) %ref.tmp2) #27
  call void @_ZNSaIcEC1Ev(ptr noundef nonnull align 1 dereferenceable(1) %ref.tmp7) #27
  %call.i1 = call noundef ptr @_ZNSt7__cxx1112basic_stringIcSt11char_traitsIcESaIcEE13_M_local_dataEv(ptr noundef nonnull align 8 dereferenceable(32) %ref.tmp6) #27
  call void @_ZNSt7__cxx1112basic_stringIcSt11char_traitsIcESaIcEE12_Alloc_hiderC1EPcRKS3_(ptr noundef nonnull align 8 dereferenceable(8) %ref.tmp6, ptr noundef %call.i1, ptr noundef nonnull align 1 dereferenceable(1) %ref.tmp7) #27
  call void @_ZNSt7__cxx1112basic_stringIcSt11char_traitsIcESaIcEE12_M_constructIPKcEEvT_S8_St20forward_iterator_tag(ptr noundef nonnull align 8 dereferenceable(32) %ref.tmp6, ptr noundef nonnull @.str.79, ptr noundef nonnull getelementptr inbounds ([10 x i8], ptr @.str.79, i64 0, i64 9))
  %call8 = call fastcc noundef nonnull align 8 dereferenceable(64) ptr @_ZNSt3mapINSt7__cxx1112basic_stringIcSt11char_traitsIcESaIcEEEZN6hermes2vm6GCBase20sizeDiagnosticCensusEmE14DiagnosticStatSt4lessIS5_ESaISt4pairIKS5_S9_EEEixEOS5_(ptr noundef nonnull align 8 dereferenceable(48) %breakdown, ptr noundef nonnull align 8 dereferenceable(32) %ref.tmp6)
  %size = getelementptr inbounds i8, ptr %call8, i64 8
  %1 = load i64, ptr %size, align 8
  %add = add i64 %1, 4
  store i64 %add, ptr %size, align 8
  call void @_ZNSt7__cxx1112basic_stringIcSt11char_traitsIcESaIcEED1Ev(ptr noundef nonnull align 8 dereferenceable(32) %ref.tmp6) #27
  call void @_ZNSaIcED1Ev(ptr noundef nonnull align 1 dereferenceable(1) %ref.tmp7) #27
  ret void
}